; ModuleID = '20/1082.c'
source_filename = "20/1082.c"
target datalayout = "e-m:e-p270:32:32-p271:32:32-p272:64:64-i64:64-f80:128-n8:16:32:64-S128"
target triple = "x86_64-pc-linux-gnu"

@.str = private unnamed_addr constant [6 x i8] c"%s %s\00", align 1
@.str.1 = private unnamed_addr constant [2 x i8] c"\0A\00", align 1

; Function Attrs: noinline nounwind uwtable
define dso_local i32 @main() #0 {
  %1 = alloca i32, align 4
  %2 = alloca i32, align 4
  %3 = alloca i32, align 4
  %4 = alloca i32, align 4
  %5 = alloca i32, align 4
  %6 = alloca i32, align 4
  %7 = alloca i32, align 4
  %8 = alloca i32, align 4
  %9 = alloca [101 x i32], align 16
  %10 = alloca [15 x i8], align 1
  %11 = alloca [4 x i8], align 1
  %12 = alloca [20 x i8], align 16
  store i32 0, i32* %1, align 4
  br label %13

13:                                               ; preds = %124, %0
  %14 = getelementptr inbounds [15 x i8], [15 x i8]* %10, i64 0, i64 0
  %15 = getelementptr inbounds [4 x i8], [4 x i8]* %11, i64 0, i64 0
  %16 = call i32 (i8*, ...) @__isoc99_scanf(i8* getelementptr inbounds ([6 x i8], [6 x i8]* @.str, i64 0, i64 0), i8* %14, i8* %15)
  %17 = icmp ne i32 %16, -1
  br i1 %17, label %18, label %126

18:                                               ; preds = %13
  store i32 0, i32* %8, align 4
  %19 = getelementptr inbounds [15 x i8], [15 x i8]* %10, i64 0, i64 0
  %20 = call i64 @strlen(i8* %19) #3
  %21 = trunc i64 %20 to i32
  store i32 %21, i32* %5, align 4
  store i32 0, i32* %2, align 4
  br label %22

22:                                               ; preds = %41, %18
  %23 = load i32, i32* %2, align 4
  %24 = load i32, i32* %5, align 4
  %25 = icmp slt i32 %23, %24
  br i1 %25, label %26, label %44

26:                                               ; preds = %22
  %27 = load i32, i32* %8, align 4
  %28 = sext i32 %27 to i64
  %29 = getelementptr inbounds [15 x i8], [15 x i8]* %10, i64 0, i64 %28
  %30 = load i8, i8* %29, align 1
  %31 = sext i8 %30 to i32
  %32 = load i32, i32* %2, align 4
  %33 = sext i32 %32 to i64
  %34 = getelementptr inbounds [15 x i8], [15 x i8]* %10, i64 0, i64 %33
  %35 = load i8, i8* %34, align 1
  %36 = sext i8 %35 to i32
  %37 = icmp slt i32 %31, %36
  br i1 %37, label %38, label %40

38:                                               ; preds = %26
  %39 = load i32, i32* %2, align 4
  store i32 %39, i32* %8, align 4
  br label %40

40:                                               ; preds = %38, %26
  br label %41

41:                                               ; preds = %40
  %42 = load i32, i32* %2, align 4
  %43 = add nsw i32 %42, 1
  store i32 %43, i32* %2, align 4
  br label %22

44:                                               ; preds = %22
  store i32 0, i32* %3, align 4
  br label %45

45:                                               ; preds = %57, %44
  %46 = load i32, i32* %3, align 4
  %47 = load i32, i32* %8, align 4
  %48 = icmp sle i32 %46, %47
  br i1 %48, label %49, label %60

49:                                               ; preds = %45
  %50 = load i32, i32* %3, align 4
  %51 = sext i32 %50 to i64
  %52 = getelementptr inbounds [15 x i8], [15 x i8]* %10, i64 0, i64 %51
  %53 = load i8, i8* %52, align 1
  %54 = load i32, i32* %3, align 4
  %55 = sext i32 %54 to i64
  %56 = getelementptr inbounds [20 x i8], [20 x i8]* %12, i64 0, i64 %55
  store i8 %53, i8* %56, align 1
  br label %57

57:                                               ; preds = %49
  %58 = load i32, i32* %3, align 4
  %59 = add nsw i32 %58, 1
  store i32 %59, i32* %3, align 4
  br label %45

60:                                               ; preds = %45
  %61 = load i32, i32* %8, align 4
  %62 = add nsw i32 %61, 1
  store i32 %62, i32* %3, align 4
  br label %63

63:                                               ; preds = %79, %60
  %64 = load i32, i32* %3, align 4
  %65 = load i32, i32* %8, align 4
  %66 = add nsw i32 %65, 3
  %67 = icmp sle i32 %64, %66
  br i1 %67, label %68, label %82

68:                                               ; preds = %63
  %69 = load i32, i32* %3, align 4
  %70 = load i32, i32* %8, align 4
  %71 = sub nsw i32 %69, %70
  %72 = sub nsw i32 %71, 1
  %73 = sext i32 %72 to i64
  %74 = getelementptr inbounds [4 x i8], [4 x i8]* %11, i64 0, i64 %73
  %75 = load i8, i8* %74, align 1
  %76 = load i32, i32* %3, align 4
  %77 = sext i32 %76 to i64
  %78 = getelementptr inbounds [20 x i8], [20 x i8]* %12, i64 0, i64 %77
  store i8 %75, i8* %78, align 1
  br label %79

79:                                               ; preds = %68
  %80 = load i32, i32* %3, align 4
  %81 = add nsw i32 %80, 1
  store i32 %81, i32* %3, align 4
  br label %63

82:                                               ; preds = %63
  %83 = load i32, i32* %8, align 4
  %84 = load i32, i32* %5, align 4
  %85 = sub nsw i32 %84, 1
  %86 = icmp slt i32 %83, %85
  br i1 %86, label %87, label %108

87:                                               ; preds = %82
  %88 = load i32, i32* %8, align 4
  %89 = add nsw i32 %88, 4
  store i32 %89, i32* %3, align 4
  br label %90

90:                                               ; preds = %104, %87
  %91 = load i32, i32* %3, align 4
  %92 = load i32, i32* %5, align 4
  %93 = add nsw i32 %92, 3
  %94 = icmp slt i32 %91, %93
  br i1 %94, label %95, label %107

95:                                               ; preds = %90
  %96 = load i32, i32* %3, align 4
  %97 = sub nsw i32 %96, 3
  %98 = sext i32 %97 to i64
  %99 = getelementptr inbounds [15 x i8], [15 x i8]* %10, i64 0, i64 %98
  %100 = load i8, i8* %99, align 1
  %101 = load i32, i32* %3, align 4
  %102 = sext i32 %101 to i64
  %103 = getelementptr inbounds [20 x i8], [20 x i8]* %12, i64 0, i64 %102
  store i8 %100, i8* %103, align 1
  br label %104

104:                                              ; preds = %95
  %105 = load i32, i32* %3, align 4
  %106 = add nsw i32 %105, 1
  store i32 %106, i32* %3, align 4
  br label %90

107:                                              ; preds = %90
  br label %108

108:                                              ; preds = %107, %82
  store i32 0, i32* %2, align 4
  br label %109

109:                                              ; preds = %121, %108
  %110 = load i32, i32* %2, align 4
  %111 = load i32, i32* %5, align 4
  %112 = add nsw i32 %111, 3
  %113 = icmp slt i32 %110, %112
  br i1 %113, label %114, label %124

114:                                              ; preds = %109
  %115 = load i32, i32* %2, align 4
  %116 = sext i32 %115 to i64
  %117 = getelementptr inbounds [20 x i8], [20 x i8]* %12, i64 0, i64 %116
  %118 = load i8, i8* %117, align 1
  %119 = sext i8 %118 to i32
  %120 = call i32 @putchar(i32 %119)
  br label %121

121:                                              ; preds = %114
  %122 = load i32, i32* %2, align 4
  %123 = add nsw i32 %122, 1
  store i32 %123, i32* %2, align 4
  br label %109

124:                                              ; preds = %109
  %125 = call i32 (i8*, ...) @printf(i8* getelementptr inbounds ([2 x i8], [2 x i8]* @.str.1, i64 0, i64 0))
  br label %13

126:                                              ; preds = %13
  %127 = load i32, i32* %1, align 4
  ret i32 %127
}

declare dso_local i32 @__isoc99_scanf(i8*, ...) #1

; Function Attrs: nounwind readonly
declare dso_local i64 @strlen(i8*) #2

declare dso_local i32 @putchar(i32) #1

declare dso_local i32 @printf(i8*, ...) #1


!llvm.module.flags = !{!0}
!llvm.ident = !{!1}

!0 = !{i32 1, !"wchar_size", i32 4}
!1 = !{!"clang version 10.0.0-4ubuntu1 "}
